target datalayout = "e-m:e-p270:32:32-p271:32:32-p272:64:64-i64:64-i128:128-f80:128-n8:16:32:64-S128"
target triple = "x86_64-unknown-linux-gnu"

@_ZN6icu_759ScriptSetD1Ev = unnamed_addr alias void (ptr), ptr @_ZN6icu_759ScriptSetD2Ev

; Function Attrs: mustprogress nounwind uwtable
define void @uhash_deleteScriptSet_75(ptr noundef %obj) #0 {
entry:
  %obj.addr = alloca ptr, align 8
  %s = alloca ptr, align 8
  store ptr %obj, ptr %obj.addr, align 8
  %0 = load ptr, ptr %obj.addr, align 8
  store ptr %0, ptr %s, align 8
  %1 = load ptr, ptr %s, align 8
  %isnull = icmp eq ptr %1, null
  br i1 %isnull, label %delete.end, label %delete.notnull

delete.notnull:                                   ; preds = %entry
  call void @_ZN6icu_759ScriptSetD1Ev(ptr noundef nonnull align 4 dereferenceable(28) %1) #8
  call void @_ZN6icu_757UMemorydlEPv(ptr noundef %1) #8
  br label %delete.end

delete.end:                                       ; preds = %delete.notnull, %entry
  ret void
}