; Function Attrs: mustprogress nounwind uwtable
define void @uhash_deleteScriptSet_75(ptr noundef %obj) local_unnamed_addr #10 {
entry:
  %isnull = icmp eq ptr %obj, null
  br i1 %isnull, label %delete.end, label %delete.notnull

delete.notnull:                                   ; preds = %entry
  tail call void @_ZN6icu_759ScriptSetD1Ev(ptr noundef nonnull align 4 dereferenceable(28) %obj) #14
  tail call void @_ZN6icu_757UMemorydlEPv(ptr noundef nonnull %obj) #14
  br label %delete.end

delete.end:                                       ; preds = %delete.notnull, %entry
  ret void
}